(lp0
S'poi'
p1
aS'salary'
p2
aS'exercised_stock_options'
p3
aS'total_stock_value'
p4
aS'pct_stock_value_excercised'
p5
aS'shared_receipt_with_poi'
p6
aS'from_poi_to_this_person'
p7
aS'from_this_person_to_poi'
p8
a.